; Function Attrs: nounwind uwtable
define hidden i32 @lsarpc_dissect_struct_lsa_DomainInfoKerberos(ptr noundef %0, i32 noundef %1, ptr noundef %2, ptr noundef %3, ptr noundef %4, ptr noundef %5, i32 noundef %6, i32 %7) local_unnamed_addr #0 {
  %9 = getelementptr inbounds nuw i8, ptr %4, i64 28
  %10 = load i32, ptr %9, align 4
  %.not = icmp ne i32 %10, 0
  %11 = and i32 %1, 7
  %.not56 = icmp eq i32 %11, 0
  %or.cond = or i1 %.not56, %.not
  %12 = and i32 %1, -8
  %13 = add i32 %12, 8
  %.0 = select i1 %or.cond, i32 %1, i32 %13
  %.not57 = icmp eq ptr %3, null
  br i1 %.not57, label %18, label %14

14:                                               ; preds = %8
  %15 = tail call ptr @proto_tree_add_item(ptr noundef nonnull %3, i32 noundef %6, ptr noundef %0, i32 noundef %.0, i32 noundef -1, i32 noundef 0) #5
  %16 = load i32, ptr @ett_lsarpc_lsa_DomainInfoKerberos, align 4
  %17 = tail call ptr @proto_item_add_subtree(ptr noundef %15, i32 noundef %16) #5
  br label %18

18:                                               ; preds = %14, %8
  %.054 = phi ptr [ %15, %14 ], [ null, %8 ]
  %.053 = phi ptr [ %17, %14 ], [ null, %8 ]
  %19 = load i32, ptr @hf_lsarpc_lsa_DomainInfoKerberos_authentication_options, align 4
  %20 = tail call i32 @lsarpc_dissect_bitmap_lsa_krbAuthenticationOptions(ptr noundef %0, i32 noundef %.0, ptr noundef %2, ptr noundef %.053, ptr noundef nonnull %4, ptr noundef %5, i32 noundef %19, i32 poison)
  %21 = load i32, ptr @hf_lsarpc_lsa_DomainInfoKerberos_service_tkt_lifetime, align 4
  %22 = tail call i32 @dissect_ndr_uint64(ptr noundef %0, i32 noundef %20, ptr noundef %2, ptr noundef %.053, ptr noundef nonnull %4, ptr noundef %5, i32 noundef %21, ptr noundef null) #5
  %23 = load i32, ptr @hf_lsarpc_lsa_DomainInfoKerberos_user_tkt_lifetime, align 4
  %24 = tail call i32 @dissect_ndr_uint64(ptr noundef %0, i32 noundef %22, ptr noundef %2, ptr noundef %.053, ptr noundef nonnull %4, ptr noundef %5, i32 noundef %23, ptr noundef null) #5
  %25 = load i32, ptr @hf_lsarpc_lsa_DomainInfoKerberos_user_tkt_renewaltime, align 4
  %26 = tail call i32 @dissect_ndr_uint64(ptr noundef %0, i32 noundef %24, ptr noundef %2, ptr noundef %.053, ptr noundef nonnull %4, ptr noundef %5, i32 noundef %25, ptr noundef null) #5
  %27 = load i32, ptr @hf_lsarpc_lsa_DomainInfoKerberos_clock_skew, align 4
  %28 = tail call i32 @dissect_ndr_uint64(ptr noundef %0, i32 noundef %26, ptr noundef %2, ptr noundef %.053, ptr noundef nonnull %4, ptr noundef %5, i32 noundef %27, ptr noundef null) #5
  %29 = load i32, ptr @hf_lsarpc_lsa_DomainInfoKerberos_reserved, align 4
  %30 = tail call i32 @dissect_ndr_uint64(ptr noundef %0, i32 noundef %28, ptr noundef %2, ptr noundef %.053, ptr noundef nonnull %4, ptr noundef %5, i32 noundef %29, ptr noundef null) #5
  %31 = sub i32 %30, %.0
  tail call void @proto_item_set_len(ptr noundef %.054, i32 noundef %31) #5
  %32 = getelementptr inbounds nuw i8, ptr %4, i64 72
  %33 = load ptr, ptr %32, align 8
  %34 = getelementptr inbounds nuw i8, ptr %33, i64 96
  %35 = load i32, ptr %34, align 8
  %36 = and i32 %35, 1
  %.not58 = icmp eq i32 %36, 0
  br i1 %.not58, label %43, label %37

37:                                               ; preds = %18
  %38 = load i32, ptr %9, align 4
  %.not59 = icmp ne i32 %38, 0
  %39 = and i32 %30, 7
  %.not60 = icmp eq i32 %39, 0
  %or.cond61 = or i1 %.not60, %.not59
  br i1 %or.cond61, label %43, label %40

40:                                               ; preds = %37
  %41 = and i32 %30, -8
  %42 = add i32 %41, 8
  br label %43

43:                                               ; preds = %37, %40, %18
  %.1 = phi i32 [ %30, %37 ], [ %42, %40 ], [ %30, %18 ]
  ret i32 %.1
}